target datalayout = "e-m:e-p270:32:32-p271:32:32-p272:64:64-i64:64-i128:128-f80:128-n8:16:32:64-S128"
target triple = "x86_64-pc-linux-gnu"

%"class.__gnu_cxx::__normal_iterator" = type { ptr }
%class.anon = type { ptr }
%"struct.__gnu_cxx::__ops::_Iter_comp_iter" = type { %class.anon }

; Function Attrs: mustprogress nounwind uwtable
define linkonce_odr void @_ZN9__gnu_cxx17__normal_iteratorIPlSt6vectorIlSaIlEEEC2ERKS1_(ptr noundef nonnull align 8 dereferenceable(8) %0, ptr noundef nonnull align 8 dereferenceable(8) %1) unnamed_addr #0 comdat align 2 {
  %3 = alloca ptr, align 8
  %4 = alloca ptr, align 8
  store ptr %0, ptr %3, align 8, !tbaa !192
  store ptr %1, ptr %4, align 8, !tbaa !156
  %5 = load ptr, ptr %3, align 8
  %6 = getelementptr inbounds nuw %"class.__gnu_cxx::__normal_iterator", ptr %5, i32 0, i32 0
  %7 = load ptr, ptr %4, align 8, !tbaa !156
  %8 = load ptr, ptr %7, align 8, !tbaa !13
  store ptr %8, ptr %6, align 8, !tbaa !209
  ret void
}

; Function Attrs: mustprogress nounwind uwtable
define linkonce_odr noundef nonnull align 8 dereferenceable(8) ptr @_ZNK9__gnu_cxx17__normal_iteratorIPlSt6vectorIlSaIlEEE4baseEv(ptr noundef nonnull align 8 dereferenceable(8) %0) #0 comdat align 2 {
  %2 = alloca ptr, align 8
  store ptr %0, ptr %2, align 8, !tbaa !192
  %3 = load ptr, ptr %2, align 8
  %4 = getelementptr inbounds nuw %"class.__gnu_cxx::__normal_iterator", ptr %3, i32 0, i32 0
  ret ptr %4
}

; Function Attrs: mustprogress nounwind uwtable
define linkonce_odr ptr @_ZNK9__gnu_cxx17__normal_iteratorIPlSt6vectorIlSaIlEEEplEl(ptr noundef nonnull align 8 dereferenceable(8) %0, i64 noundef %1) #0 comdat align 2 {
  %3 = alloca %"class.__gnu_cxx::__normal_iterator", align 8
  %4 = alloca ptr, align 8
  %5 = alloca i64, align 8
  %6 = alloca ptr, align 8
  store ptr %0, ptr %4, align 8, !tbaa !192
  store i64 %1, ptr %5, align 8, !tbaa !9
  %7 = load ptr, ptr %4, align 8
  call void @llvm.lifetime.start.p0(i64 8, ptr %6) #6
  %8 = getelementptr inbounds nuw %"class.__gnu_cxx::__normal_iterator", ptr %7, i32 0, i32 0
  %9 = load ptr, ptr %8, align 8, !tbaa !209
  %10 = load i64, ptr %5, align 8, !tbaa !9
  %11 = getelementptr inbounds i64, ptr %9, i64 %10
  store ptr %11, ptr %6, align 8, !tbaa !13
  call void @_ZN9__gnu_cxx17__normal_iteratorIPlSt6vectorIlSaIlEEEC2ERKS1_(ptr noundef nonnull align 8 dereferenceable(8) %3, ptr noundef nonnull align 8 dereferenceable(8) %6) #6
  call void @llvm.lifetime.end.p0(i64 8, ptr %6) #6
  %12 = getelementptr inbounds nuw %"class.__gnu_cxx::__normal_iterator", ptr %3, i32 0, i32 0
  %13 = load ptr, ptr %12, align 8
  ret ptr %13
}

; Function Attrs: inlinehint mustprogress nounwind uwtable
define linkonce_odr noundef i64 @_ZN9__gnu_cxxmiIPlSt6vectorIlSaIlEEEENS_17__normal_iteratorIT_T0_E15difference_typeERKS8_SB_(ptr noundef nonnull align 8 dereferenceable(8) %0, ptr noundef nonnull align 8 dereferenceable(8) %1) #8 comdat {
  %3 = alloca ptr, align 8
  %4 = alloca ptr, align 8
  store ptr %0, ptr %3, align 8, !tbaa !192
  store ptr %1, ptr %4, align 8, !tbaa !192
  %5 = load ptr, ptr %3, align 8, !tbaa !192
  %6 = call noundef nonnull align 8 dereferenceable(8) ptr @_ZNK9__gnu_cxx17__normal_iteratorIPlSt6vectorIlSaIlEEE4baseEv(ptr noundef nonnull align 8 dereferenceable(8) %5) #6
  %7 = load ptr, ptr %6, align 8, !tbaa !13
  %8 = load ptr, ptr %4, align 8, !tbaa !192
  %9 = call noundef nonnull align 8 dereferenceable(8) ptr @_ZNK9__gnu_cxx17__normal_iteratorIPlSt6vectorIlSaIlEEE4baseEv(ptr noundef nonnull align 8 dereferenceable(8) %8) #6
  %10 = load ptr, ptr %9, align 8, !tbaa !13
  %11 = ptrtoint ptr %7 to i64
  %12 = ptrtoint ptr %10 to i64
  %13 = sub i64 %11, %12
  %14 = sdiv exact i64 %13, 8
  ret i64 %14
}

; Function Attrs: mustprogress uwtable
define internal void @"_ZSt22__stable_sort_adaptiveIN9__gnu_cxx17__normal_iteratorIPlSt6vectorIlSaIlEEEES2_lNS0_5__ops15_Iter_comp_iterIZN5faiss16IndexIVFFastScan12add_with_idsElPKfPKlE3$_0EEEvT_SH_T0_T1_T2_"(ptr %0, ptr %1, ptr noundef %2, i64 noundef %3, ptr %4) #2 {
  %6 = alloca %"class.__gnu_cxx::__normal_iterator", align 8
  %7 = alloca %"class.__gnu_cxx::__normal_iterator", align 8
  %8 = alloca %"struct.__gnu_cxx::__ops::_Iter_comp_iter", align 8
  %9 = alloca ptr, align 8
  %10 = alloca i64, align 8
  %11 = alloca i64, align 8
  %12 = alloca %"class.__gnu_cxx::__normal_iterator", align 8
  %13 = alloca %"class.__gnu_cxx::__normal_iterator", align 8
  %14 = alloca %"class.__gnu_cxx::__normal_iterator", align 8
  %15 = alloca %"struct.__gnu_cxx::__ops::_Iter_comp_iter", align 8
  %16 = alloca %"class.__gnu_cxx::__normal_iterator", align 8
  %17 = alloca %"class.__gnu_cxx::__normal_iterator", align 8
  %18 = alloca %"struct.__gnu_cxx::__ops::_Iter_comp_iter", align 8
  %19 = alloca %"class.__gnu_cxx::__normal_iterator", align 8
  %20 = alloca %"class.__gnu_cxx::__normal_iterator", align 8
  %21 = alloca %"struct.__gnu_cxx::__ops::_Iter_comp_iter", align 8
  %22 = alloca %"class.__gnu_cxx::__normal_iterator", align 8
  %23 = alloca %"class.__gnu_cxx::__normal_iterator", align 8
  %24 = alloca %"struct.__gnu_cxx::__ops::_Iter_comp_iter", align 8
  %25 = alloca %"class.__gnu_cxx::__normal_iterator", align 8
  %26 = alloca %"class.__gnu_cxx::__normal_iterator", align 8
  %27 = alloca %"class.__gnu_cxx::__normal_iterator", align 8
  %28 = alloca %"struct.__gnu_cxx::__ops::_Iter_comp_iter", align 8
  %29 = getelementptr inbounds nuw %"class.__gnu_cxx::__normal_iterator", ptr %6, i32 0, i32 0
  store ptr %0, ptr %29, align 8
  %30 = getelementptr inbounds nuw %"class.__gnu_cxx::__normal_iterator", ptr %7, i32 0, i32 0
  store ptr %1, ptr %30, align 8
  %31 = getelementptr inbounds nuw %"struct.__gnu_cxx::__ops::_Iter_comp_iter", ptr %8, i32 0, i32 0
  %32 = getelementptr inbounds nuw %class.anon, ptr %31, i32 0, i32 0
  store ptr %4, ptr %32, align 8
  store ptr %2, ptr %9, align 8, !tbaa !13
  store i64 %3, ptr %10, align 8, !tbaa !9
  call void @llvm.lifetime.start.p0(i64 8, ptr %11) #6
  %33 = call noundef i64 @_ZN9__gnu_cxxmiIPlSt6vectorIlSaIlEEEENS_17__normal_iteratorIT_T0_E15difference_typeERKS8_SB_(ptr noundef nonnull align 8 dereferenceable(8) %7, ptr noundef nonnull align 8 dereferenceable(8) %6) #6
  %34 = add nsw i64 %33, 1
  %35 = sdiv i64 %34, 2
  store i64 %35, ptr %11, align 8, !tbaa !9
  call void @llvm.lifetime.start.p0(i64 8, ptr %12) #6
  %36 = load i64, ptr %11, align 8, !tbaa !9
  %37 = call ptr @_ZNK9__gnu_cxx17__normal_iteratorIPlSt6vectorIlSaIlEEEplEl(ptr noundef nonnull align 8 dereferenceable(8) %6, i64 noundef %36) #6
  %38 = getelementptr inbounds nuw %"class.__gnu_cxx::__normal_iterator", ptr %12, i32 0, i32 0
  store ptr %37, ptr %38, align 8
  %39 = load i64, ptr %11, align 8, !tbaa !9
  %40 = load i64, ptr %10, align 8, !tbaa !9
  %41 = icmp sgt i64 %39, %40
  br i1 %41, label %42, label %61

42:                                               ; preds = %5
  call void @llvm.memcpy.p0.p0.i64(ptr align 8 %13, ptr align 8 %6, i64 8, i1 false), !tbaa.struct !147
  call void @llvm.memcpy.p0.p0.i64(ptr align 8 %14, ptr align 8 %12, i64 8, i1 false), !tbaa.struct !147
  %43 = load ptr, ptr %9, align 8, !tbaa !13
  %44 = load i64, ptr %10, align 8, !tbaa !9
  call void @llvm.memcpy.p0.p0.i64(ptr align 8 %15, ptr align 8 %8, i64 8, i1 false), !tbaa.struct !148
  %45 = getelementptr inbounds nuw %"class.__gnu_cxx::__normal_iterator", ptr %13, i32 0, i32 0
  %46 = load ptr, ptr %45, align 8
  %47 = getelementptr inbounds nuw %"class.__gnu_cxx::__normal_iterator", ptr %14, i32 0, i32 0
  %48 = load ptr, ptr %47, align 8
  %49 = getelementptr inbounds nuw %"struct.__gnu_cxx::__ops::_Iter_comp_iter", ptr %15, i32 0, i32 0
  %50 = getelementptr inbounds nuw %class.anon, ptr %49, i32 0, i32 0
  %51 = load ptr, ptr %50, align 8
  call void @"_ZSt22__stable_sort_adaptiveIN9__gnu_cxx17__normal_iteratorIPlSt6vectorIlSaIlEEEES2_lNS0_5__ops15_Iter_comp_iterIZN5faiss16IndexIVFFastScan12add_with_idsElPKfPKlE3$_0EEEvT_SH_T0_T1_T2_"(ptr %46, ptr %48, ptr noundef %43, i64 noundef %44, ptr %51)
  call void @llvm.memcpy.p0.p0.i64(ptr align 8 %16, ptr align 8 %12, i64 8, i1 false), !tbaa.struct !147
  call void @llvm.memcpy.p0.p0.i64(ptr align 8 %17, ptr align 8 %7, i64 8, i1 false), !tbaa.struct !147
  %52 = load ptr, ptr %9, align 8, !tbaa !13
  %53 = load i64, ptr %10, align 8, !tbaa !9
  call void @llvm.memcpy.p0.p0.i64(ptr align 8 %18, ptr align 8 %8, i64 8, i1 false), !tbaa.struct !148
  %54 = getelementptr inbounds nuw %"class.__gnu_cxx::__normal_iterator", ptr %16, i32 0, i32 0
  %55 = load ptr, ptr %54, align 8
  %56 = getelementptr inbounds nuw %"class.__gnu_cxx::__normal_iterator", ptr %17, i32 0, i32 0
  %57 = load ptr, ptr %56, align 8
  %58 = getelementptr inbounds nuw %"struct.__gnu_cxx::__ops::_Iter_comp_iter", ptr %18, i32 0, i32 0
  %59 = getelementptr inbounds nuw %class.anon, ptr %58, i32 0, i32 0
  %60 = load ptr, ptr %59, align 8
  call void @"_ZSt22__stable_sort_adaptiveIN9__gnu_cxx17__normal_iteratorIPlSt6vectorIlSaIlEEEES2_lNS0_5__ops15_Iter_comp_iterIZN5faiss16IndexIVFFastScan12add_with_idsElPKfPKlE3$_0EEEvT_SH_T0_T1_T2_"(ptr %55, ptr %57, ptr noundef %52, i64 noundef %53, ptr %60)
  br label %78

61:                                               ; preds = %5
  call void @llvm.memcpy.p0.p0.i64(ptr align 8 %19, ptr align 8 %6, i64 8, i1 false), !tbaa.struct !147
  call void @llvm.memcpy.p0.p0.i64(ptr align 8 %20, ptr align 8 %12, i64 8, i1 false), !tbaa.struct !147
  %62 = load ptr, ptr %9, align 8, !tbaa !13
  call void @llvm.memcpy.p0.p0.i64(ptr align 8 %21, ptr align 8 %8, i64 8, i1 false), !tbaa.struct !148
  %63 = getelementptr inbounds nuw %"class.__gnu_cxx::__normal_iterator", ptr %19, i32 0, i32 0
  %64 = load ptr, ptr %63, align 8
  %65 = getelementptr inbounds nuw %"class.__gnu_cxx::__normal_iterator", ptr %20, i32 0, i32 0
  %66 = load ptr, ptr %65, align 8
  %67 = getelementptr inbounds nuw %"struct.__gnu_cxx::__ops::_Iter_comp_iter", ptr %21, i32 0, i32 0
  %68 = getelementptr inbounds nuw %class.anon, ptr %67, i32 0, i32 0
  %69 = load ptr, ptr %68, align 8
  call void @"_ZSt24__merge_sort_with_bufferIN9__gnu_cxx17__normal_iteratorIPlSt6vectorIlSaIlEEEES2_NS0_5__ops15_Iter_comp_iterIZN5faiss16IndexIVFFastScan12add_with_idsElPKfPKlE3$_0EEEvT_SH_T0_T1_"(ptr %64, ptr %66, ptr noundef %62, ptr %69)
  call void @llvm.memcpy.p0.p0.i64(ptr align 8 %22, ptr align 8 %12, i64 8, i1 false), !tbaa.struct !147
  call void @llvm.memcpy.p0.p0.i64(ptr align 8 %23, ptr align 8 %7, i64 8, i1 false), !tbaa.struct !147
  %70 = load ptr, ptr %9, align 8, !tbaa !13
  call void @llvm.memcpy.p0.p0.i64(ptr align 8 %24, ptr align 8 %8, i64 8, i1 false), !tbaa.struct !148
  %71 = getelementptr inbounds nuw %"class.__gnu_cxx::__normal_iterator", ptr %22, i32 0, i32 0
  %72 = load ptr, ptr %71, align 8
  %73 = getelementptr inbounds nuw %"class.__gnu_cxx::__normal_iterator", ptr %23, i32 0, i32 0
  %74 = load ptr, ptr %73, align 8
  %75 = getelementptr inbounds nuw %"struct.__gnu_cxx::__ops::_Iter_comp_iter", ptr %24, i32 0, i32 0
  %76 = getelementptr inbounds nuw %class.anon, ptr %75, i32 0, i32 0
  %77 = load ptr, ptr %76, align 8
  call void @"_ZSt24__merge_sort_with_bufferIN9__gnu_cxx17__normal_iteratorIPlSt6vectorIlSaIlEEEES2_NS0_5__ops15_Iter_comp_iterIZN5faiss16IndexIVFFastScan12add_with_idsElPKfPKlE3$_0EEEvT_SH_T0_T1_"(ptr %72, ptr %74, ptr noundef %70, ptr %77)
  br label %78

78:                                               ; preds = %61, %42
  call void @llvm.memcpy.p0.p0.i64(ptr align 8 %25, ptr align 8 %6, i64 8, i1 false), !tbaa.struct !147
  call void @llvm.memcpy.p0.p0.i64(ptr align 8 %26, ptr align 8 %12, i64 8, i1 false), !tbaa.struct !147
  call void @llvm.memcpy.p0.p0.i64(ptr align 8 %27, ptr align 8 %7, i64 8, i1 false), !tbaa.struct !147
  %79 = call noundef i64 @_ZN9__gnu_cxxmiIPlSt6vectorIlSaIlEEEENS_17__normal_iteratorIT_T0_E15difference_typeERKS8_SB_(ptr noundef nonnull align 8 dereferenceable(8) %12, ptr noundef nonnull align 8 dereferenceable(8) %6) #6
  %80 = call noundef i64 @_ZN9__gnu_cxxmiIPlSt6vectorIlSaIlEEEENS_17__normal_iteratorIT_T0_E15difference_typeERKS8_SB_(ptr noundef nonnull align 8 dereferenceable(8) %7, ptr noundef nonnull align 8 dereferenceable(8) %12) #6
  %81 = load ptr, ptr %9, align 8, !tbaa !13
  %82 = load i64, ptr %10, align 8, !tbaa !9
  call void @llvm.memcpy.p0.p0.i64(ptr align 8 %28, ptr align 8 %8, i64 8, i1 false), !tbaa.struct !148
  %83 = getelementptr inbounds nuw %"class.__gnu_cxx::__normal_iterator", ptr %25, i32 0, i32 0
  %84 = load ptr, ptr %83, align 8
  %85 = getelementptr inbounds nuw %"class.__gnu_cxx::__normal_iterator", ptr %26, i32 0, i32 0
  %86 = load ptr, ptr %85, align 8
  %87 = getelementptr inbounds nuw %"class.__gnu_cxx::__normal_iterator", ptr %27, i32 0, i32 0
  %88 = load ptr, ptr %87, align 8
  %89 = getelementptr inbounds nuw %"struct.__gnu_cxx::__ops::_Iter_comp_iter", ptr %28, i32 0, i32 0
  %90 = getelementptr inbounds nuw %class.anon, ptr %89, i32 0, i32 0
  %91 = load ptr, ptr %90, align 8
  %92 = ptrtoint ptr %91 to i64
  call void @"_ZSt16__merge_adaptiveIN9__gnu_cxx17__normal_iteratorIPlSt6vectorIlSaIlEEEElS2_NS0_5__ops15_Iter_comp_iterIZN5faiss16IndexIVFFastScan12add_with_idsElPKfPKlE3$_0EEEvT_SH_SH_T0_SI_T1_SI_T2_"(ptr %84, ptr %86, ptr %88, i64 noundef %79, i64 noundef %80, ptr noundef %81, i64 noundef %82, i64 %92)
  call void @llvm.lifetime.end.p0(i64 8, ptr %12) #6
  call void @llvm.lifetime.end.p0(i64 8, ptr %11) #6
  ret void
}